; Function Attrs: nounwind uwtable
define void @Ptngc_comp_conv_from_mtf(ptr noundef readonly captures(none) %0, i32 noundef %1, ptr noundef readonly captures(none) %2, i32 noundef %3, ptr noundef writeonly captures(none) %4) local_unnamed_addr #0 {
  %6 = sext i32 %3 to i64
  %7 = shl nsw i64 %6, 2
  %8 = tail call ptr @Ptngc_warnmalloc_x(i64 noundef %7, ptr noundef nonnull @.str, i32 noundef 257) #5
  %9 = add i32 %3, -1
  %10 = icmp sgt i32 %3, 1
  br i1 %10, label %.lr.ph.preheader, label %._crit_edge

.lr.ph.preheader:                                 ; preds = %5
  %wide.trip.count = zext nneg i32 %9 to i64
  br label %.lr.ph

.lr.ph:                                           ; preds = %.lr.ph.preheader, %.lr.ph
  %indvars.iv = phi i64 [ 0, %.lr.ph.preheader ], [ %indvars.iv.next, %.lr.ph ]
  %indvars.iv.next = add nuw nsw i64 %indvars.iv, 1
  %11 = getelementptr inbounds nuw i32, ptr %8, i64 %indvars.iv
  %12 = trunc nuw nsw i64 %indvars.iv.next to i32
  store i32 %12, ptr %11, align 4, !tbaa !3
  %exitcond.not = icmp eq i64 %indvars.iv.next, %wide.trip.count
  br i1 %exitcond.not, label %._crit_edge, label %.lr.ph, !llvm.loop !30

._crit_edge:                                      ; preds = %.lr.ph, %5
  %13 = sext i32 %9 to i64
  %14 = getelementptr inbounds i32, ptr %8, i64 %13
  store i32 -1, ptr %14, align 4, !tbaa !3
  %15 = icmp sgt i32 %1, 0
  br i1 %15, label %.lr.ph51.preheader, label %._crit_edge52

.lr.ph51.preheader:                               ; preds = %._crit_edge
  %wide.trip.count58 = zext nneg i32 %1 to i64
  br label %.lr.ph51

.lr.ph51:                                         ; preds = %.lr.ph51.preheader, %36
  %indvars.iv55 = phi i64 [ 0, %.lr.ph51.preheader ], [ %indvars.iv.next56, %36 ]
  %.03748 = phi i32 [ 0, %.lr.ph51.preheader ], [ %.138, %36 ]
  %16 = getelementptr inbounds nuw i32, ptr %0, i64 %indvars.iv55
  %17 = load i32, ptr %16, align 4, !tbaa !3
  %18 = icmp sgt i32 %17, 0
  br i1 %18, label %.lr.ph44, label %._crit_edge45.thread

._crit_edge45.thread:                             ; preds = %.lr.ph51
  %19 = sext i32 %.03748 to i64
  %20 = getelementptr inbounds i32, ptr %2, i64 %19
  %21 = load i32, ptr %20, align 4, !tbaa !3
  %22 = getelementptr inbounds nuw i32, ptr %4, i64 %indvars.iv55
  store i32 %21, ptr %22, align 4, !tbaa !3
  br label %36

.lr.ph44:                                         ; preds = %.lr.ph51, %.lr.ph44
  %.042 = phi i32 [ %26, %.lr.ph44 ], [ 0, %.lr.ph51 ]
  %.03541 = phi i32 [ %25, %.lr.ph44 ], [ %.03748, %.lr.ph51 ]
  %23 = sext i32 %.03541 to i64
  %24 = getelementptr inbounds i32, ptr %8, i64 %23
  %25 = load i32, ptr %24, align 4, !tbaa !3
  %26 = add nuw nsw i32 %.042, 1
  %exitcond54.not = icmp eq i32 %26, %17
  br i1 %exitcond54.not, label %._crit_edge45, label %.lr.ph44, !llvm.loop !31

._crit_edge45:                                    ; preds = %.lr.ph44
  %27 = sext i32 %25 to i64
  %28 = getelementptr inbounds i32, ptr %2, i64 %27
  %29 = load i32, ptr %28, align 4, !tbaa !3
  %30 = getelementptr inbounds nuw i32, ptr %4, i64 %indvars.iv55
  store i32 %29, ptr %30, align 4, !tbaa !3
  %.not = icmp eq i32 %.03541, -1
  br i1 %.not, label %36, label %31

31:                                               ; preds = %._crit_edge45
  %32 = getelementptr inbounds i32, ptr %8, i64 %27
  %33 = load i32, ptr %32, align 4, !tbaa !3
  %34 = sext i32 %.03541 to i64
  %35 = getelementptr inbounds i32, ptr %8, i64 %34
  store i32 %33, ptr %35, align 4, !tbaa !3
  store i32 %.03748, ptr %32, align 4, !tbaa !3
  br label %36

36:                                               ; preds = %._crit_edge45.thread, %31, %._crit_edge45
  %.138 = phi i32 [ %25, %31 ], [ %.03748, %._crit_edge45 ], [ %.03748, %._crit_edge45.thread ]
  %indvars.iv.next56 = add nuw nsw i64 %indvars.iv55, 1
  %exitcond59.not = icmp eq i64 %indvars.iv.next56, %wide.trip.count58
  br i1 %exitcond59.not, label %._crit_edge52, label %.lr.ph51, !llvm.loop !32

._crit_edge52:                                    ; preds = %36, %._crit_edge
  tail call void @free(ptr noundef %8) #5
  ret void
}